target datalayout = "e-m:e-p270:32:32-p271:32:32-p272:64:64-i64:64-i128:128-f80:128-n8:16:32:64-S128"
target triple = "x86_64-pc-linux-gnu"

%class.LogSelection = type { i64, [5 x i32], i8, i32, i64 }

; Function Attrs: mustprogress nounwind uwtable
define internal noundef zeroext i1 @_ZL8containsN6LogTag4typeEPKS0_m(i32 noundef %0, ptr noundef %1, i64 noundef %2) #1 {
  %4 = alloca i1, align 1
  %5 = alloca i32, align 4
  %6 = alloca ptr, align 8
  %7 = alloca i64, align 8
  %8 = alloca i64, align 8
  store i32 %0, ptr %5, align 4
  store ptr %1, ptr %6, align 8
  store i64 %2, ptr %7, align 8
  store i64 0, ptr %8, align 8
  br label %9

9:                                                ; preds = %22, %3
  %10 = load i64, ptr %8, align 8
  %11 = load i64, ptr %7, align 8
  %12 = icmp ult i64 %10, %11
  br i1 %12, label %13, label %25

13:                                               ; preds = %9
  %14 = load ptr, ptr %6, align 8
  %15 = load i64, ptr %8, align 8
  %16 = getelementptr inbounds i32, ptr %14, i64 %15
  %17 = load i32, ptr %16, align 4
  %18 = load i32, ptr %5, align 4
  %19 = icmp eq i32 %17, %18
  br i1 %19, label %20, label %21

20:                                               ; preds = %13
  store i1 true, ptr %4, align 1
  br label %26

21:                                               ; preds = %13
  br label %22

22:                                               ; preds = %21
  %23 = load i64, ptr %8, align 8
  %24 = add i64 %23, 1
  store i64 %24, ptr %8, align 8
  br label %9, !llvm.loop !16

25:                                               ; preds = %9
  store i1 false, ptr %4, align 1
  br label %26

26:                                               ; preds = %25, %20
  %27 = load i1, ptr %4, align 1
  ret i1 %27
}

; Function Attrs: mustprogress nounwind uwtable
define hidden noundef zeroext i1 @_ZNK12LogSelection11consists_ofEPKN6LogTag4typeE(ptr noundef nonnull align 8 dereferenceable(48) %0, ptr noundef %1) #1 align 2 {
  %3 = alloca i1, align 1
  %4 = alloca ptr, align 8
  %5 = alloca ptr, align 8
  %6 = alloca i64, align 8
  store ptr %0, ptr %4, align 8
  store ptr %1, ptr %5, align 8
  %7 = load ptr, ptr %4, align 8
  store i64 0, ptr %6, align 8
  br label %8

8:                                                ; preds = %26, %2
  %9 = load ptr, ptr %5, align 8
  %10 = load i64, ptr %6, align 8
  %11 = getelementptr inbounds i32, ptr %9, i64 %10
  %12 = load i32, ptr %11, align 4
  %13 = icmp ne i32 %12, 0
  br i1 %13, label %14, label %29

14:                                               ; preds = %8
  %15 = load ptr, ptr %5, align 8
  %16 = load i64, ptr %6, align 8
  %17 = getelementptr inbounds i32, ptr %15, i64 %16
  %18 = load i32, ptr %17, align 4
  %19 = getelementptr inbounds %class.LogSelection, ptr %7, i32 0, i32 1
  %20 = getelementptr inbounds [5 x i32], ptr %19, i64 0, i64 0
  %21 = getelementptr inbounds %class.LogSelection, ptr %7, i32 0, i32 0
  %22 = load i64, ptr %21, align 8
  %23 = call noundef zeroext i1 @_ZL8containsN6LogTag4typeEPKS0_m(i32 noundef %18, ptr noundef %20, i64 noundef %22)
  br i1 %23, label %25, label %24

24:                                               ; preds = %14
  store i1 false, ptr %3, align 1
  br label %34

25:                                               ; preds = %14
  br label %26

26:                                               ; preds = %25
  %27 = load i64, ptr %6, align 8
  %28 = add i64 %27, 1
  store i64 %28, ptr %6, align 8
  br label %8, !llvm.loop !15

29:                                               ; preds = %8
  %30 = load i64, ptr %6, align 8
  %31 = getelementptr inbounds %class.LogSelection, ptr %7, i32 0, i32 0
  %32 = load i64, ptr %31, align 8
  %33 = icmp eq i64 %30, %32
  store i1 %33, ptr %3, align 1
  br label %34

34:                                               ; preds = %29, %24
  %35 = load i1, ptr %3, align 1
  ret i1 %35
}